; Function Attrs: nofree norecurse nosync nounwind memory(read, inaccessiblemem: none) uwtable
define hidden range(i32 0, 2) i32 @avifDecoderIsKeyframe(ptr noundef readonly captures(none) %0, i32 noundef %1) local_unnamed_addr #4 {
  %3 = getelementptr inbounds nuw i8, ptr %0, i64 424
  %4 = load ptr, ptr %3, align 8
  %.not = icmp eq ptr %4, null
  br i1 %.not, label %.loopexit, label %5

5:                                                ; preds = %2
  %6 = getelementptr inbounds nuw i8, ptr %4, i64 44
  %7 = load i32, ptr %6, align 4
  %8 = icmp eq i32 %7, 0
  br i1 %8, label %.loopexit, label %.preheader

.preheader:                                       ; preds = %5
  %9 = getelementptr inbounds nuw i8, ptr %4, i64 32
  %10 = load ptr, ptr %9, align 8
  %11 = zext i32 %1 to i64
  %wide.trip.count = zext i32 %7 to i64
  br label %13

12:                                               ; preds = %18
  %indvars.iv.next = add nuw nsw i64 %indvars.iv, 1
  %exitcond.not = icmp eq i64 %indvars.iv.next, %wide.trip.count
  br i1 %exitcond.not, label %.loopexit, label %13, !llvm.loop !26

13:                                               ; preds = %.preheader, %12
  %indvars.iv = phi i64 [ 0, %.preheader ], [ %indvars.iv.next, %12 ]
  %14 = getelementptr inbounds nuw %struct.avifTile, ptr %10, i64 %indvars.iv
  %15 = load ptr, ptr %14, align 8
  %16 = getelementptr inbounds nuw i8, ptr %15, i64 12
  %17 = load i32, ptr %16, align 4
  %.not14 = icmp ult i32 %1, %17
  br i1 %.not14, label %18, label %.loopexit

18:                                               ; preds = %13
  %19 = load ptr, ptr %15, align 8
  %20 = getelementptr inbounds nuw %struct.avifDecodeSample, ptr %19, i64 %11, i32 7
  %21 = load i32, ptr %20, align 4
  %.not15 = icmp eq i32 %21, 0
  br i1 %.not15, label %.loopexit, label %12

.loopexit:                                        ; preds = %12, %13, %18, %2, %5
  %.0 = phi i32 [ 0, %5 ], [ 0, %2 ], [ 1, %12 ], [ 0, %13 ], [ 0, %18 ]
  ret i32 %.0
}